Microchip MPLAB XC8 Compiler V1.41 ()

Linker command line:

-W-3 --edf=C:\Program Files (x86)\Microchip\xc8\v1.41\dat\en_msgs.txt -cs \
  -h+dist/default/production\IOT.X.production.sym \
  --cmf=dist/default/production\IOT.X.production.cmf -z -Q16F887 \
  -oC:\Users\Tung\AppData\Local\Temp\s70o.2 \
  -Mdist/default/production/IOT.X.production.map -E1 -ver=XC8 \
  -ASTACK=0110h-016fh -pstack=STACK -ACODE=00h-07FFhx4 -ASTRCODE=00h-01FFFh \
  -ASTRING=00h-0FFhx32 -ACONST=00h-0FFhx32 -AENTRY=00h-0FFhx32 \
  -ACOMMON=070h-07Fh -ABANK0=020h-06Fh -ABANK1=0A0h-0EFh \
  -ABANK2=0110h-016Fh -ABANK3=0190h-01EFh \
  -ARAM=020h-06Fh,0A0h-0EFh,0110h-016Fh,0190h-01EFh \
  -AABS1=020h-07Fh,0A0h-0EFh,0110h-016Fh,0190h-01EFh -ASFR0=00h-01Fh \
  -ASFR1=080h-09Fh -ASFR2=0100h-010Fh -ASFR3=0180h-018Fh \
  -preset_vec=00h,intentry=04h,init,end_init -ppowerup=CODE -pcinit=CODE \
  -pfunctab=CODE -ACONFIG=02007h-02008h -pconfig=CONFIG -DCONFIG=2 \
  -AIDLOC=02000h-02003h -pidloc=IDLOC -DIDLOC=2 -AEEDATA=00h-0FFh/02100h \
  -peeprom_data=EEDATA -DEEDATA=2 -DCODE=2 -DSTRCODE=2 -DSTRING=2 -DCONST=2 \
  -DENTRY=2 -k C:\Users\Tung\AppData\Local\Temp\s70o.obj \
  dist/default/production\IOT.X.production.obj 

Object code version is 3.11

Machine type is 16F887



                Name                               Link     Load   Length Selector   Space Scale
C:\Users\Tung\AppData\Local\Temp\s70o.obj
                end_init                             12       12        3        8       0
                reset_vec                             0        0        3        0       0
                config                             2007     2007        2     400E       0
dist/default/production\IOT.X.production.obj
                cinit                                15       15       15        8       0
                intentry                              4        4        E        8       0
                text5                               DFA      DFA      206     1BF4       0
                text4                                2A       2A      2D9        8       0
                text3                               6B7      6B7       21      CB6       0
                text2                               6EF      6EF        6      CB6       0
                text1                               6D8      6D8        F      CB6       0
                maintext                            65B      65B       5C      CB6       0
                cstackBANK0                          20       20       22       20       1
                cstackCOMMON                         70       70        E       70       1
                clrtext                             6E7      6E7        8      CB6       0
                bssBANK1                             A0       A0       1E       A0       1
                dataBANK0                            5A       5A        1       20       1
                bssBANK0                             42       42       18       20       1
                stringtext                          400      400      25B        8       0

TOTAL           Name                               Link     Load   Length     Space
        CLASS   STACK          

        CLASS   CODE           
                end_init                             12       12        3         0
                cinit                                15       15       15         0
                intentry                              4        4        E         0
                reset_vec                             0        0        3         0
                text5                               DFA      DFA      206         0
                text4                                2A       2A      2D9         0
                text3                               6B7      6B7       21         0
                text2                               6EF      6EF        6         0
                text1                               6D8      6D8        F         0
                maintext                            65B      65B       5C         0
                clrtext                             6E7      6E7        8         0

        CLASS   STRCODE        
                stringtext                          400      400      25B         0

        CLASS   STRING         

        CLASS   CONST          

        CLASS   ENTRY          

        CLASS   COMMON         
                cstackCOMMON                         70       70        E         1

        CLASS   BANK0          
                cstackBANK0                          20       20       22         1
                dataBANK0                            5A       5A        1         1
                bssBANK0                             42       42       18         1

        CLASS   BANK1          
                bssBANK1                             A0       A0       1E         1

        CLASS   BANK2          

        CLASS   BANK3          

        CLASS   RAM            

        CLASS   ABS1           
                abs_s1                               7E       7E        2         1

        CLASS   SFR0           

        CLASS   SFR1           

        CLASS   SFR2           

        CLASS   SFR3           

        CLASS   CONFIG         
                config                             2007     2007        2         0

        CLASS   IDLOC          

        CLASS   EEDATA         



SEGMENTS        Name                           Load    Length   Top    Selector   Space  Class     Delta

                reset_vec                      000000  000003  000003         0       0  CODE        2
                intentry                       000004  0002FF  000303         8       0  CODE        2
                cstackBANK0                    000020  00003B  00005B        20       1  BANK0       1
                cstackCOMMON                   000070  00000E  00007E        70       1  COMMON      1
                bssBANK1                       0000A0  00001E  0000BE        A0       1  BANK1       1
                stringtext                     000400  00025B  00065B         8       0  STRCODE     2
                maintext                       00065B  00009A  0006F5       CB6       0  CODE        2
                text5                          000DFA  000206  001000      1BF4       0  CODE        2
                config                         002007  000002  002009      400E       0  CONFIG      2


UNUSED ADDRESS RANGES

        Name                Unused          Largest block    Delta
        BANK0            005B-006F             15           1
        BANK1            00BE-00EF             32           1
        BANK2            0110-016F             60           1
        BANK3            0190-01EF             60           1
        CODE             0003-0003              1           2
                         0303-03FF             FD
                         06F5-0DF9            10B
                         1000-1FFF            800
        CONST            0003-0003              1           2
                         0303-03FF             FD
                         06F5-0DF9            100
                         1000-1FFF            100
        EEDATA           2100-21FF            100           2
        ENTRY            0003-0003              1           2
                         0303-03FF             FD
                         06F5-0DF9            100
                         1000-1FFF            100
        IDLOC            2000-2003              4           2
        RAM              005B-006F             15           1
                         00BE-00EF             32
                         0110-016F             60
                         0190-01EF             60
        SFR0             0000-001F             20           1
        SFR1             0080-009F             20           1
        SFR2             0100-010F             10           1
        SFR3             0180-018F             10           1
        STACK            0110-016F             60           1
        STRCODE          0003-0003              1           2
                         0303-03FF             FD
                         06F5-0DF9            705
                         1000-1FFF           1000
        STRING           0003-0003              1           2
                         0303-03FF             FD
                         06F5-0DF9            100
                         1000-1FFF            100

                                  Symbol Table

?___aldiv                cstackCOMMON 0070
?___almod                cstackCOMMON 0070
?___altoft               cstackCOMMON 0078
?___ftmul                cstackBANK0  0020
?___ftpack               cstackCOMMON 0070
?___fttol                cstackBANK0  002F
?___lwdiv                cstackCOMMON 0075
?___lwmod                cstackCOMMON 0070
?___wmul                 cstackCOMMON 0075
?_strcmp                 cstackCOMMON 0070
?_strlen                 cstackCOMMON 0070
Ic74595_Write@bits       cstackCOMMON 0071
Ic74595_Write@data       cstackCOMMON 0074
Ic74595_Write@ic         cstackCOMMON 0070
PL10                     text4        02F1
PL12                     text5        0FE9
PL14                     text4        02FC
PL16                     text5        0FF3
PL18                     text5        0FFA
PL2                      text5        0FAC
PL4                      text5        0FC1
PL6                      text5        0FD2
PL8                      text5        0FDE
_ADCON0bits              (abs)        001F
_ADCON1bits              (abs)        009F
_ADRESH                  (abs)        001E
_ADRESL                  (abs)        009E
_ANSEL                   (abs)        0188
_ANSELH                  (abs)        0189
_Adc_lm35String          bssBANK0     0055
_CHS1                    (abs)        00FB
_CHS2                    (abs)        00FC
_CHS3                    (abs)        00FD
_ColFont                 bssBANK0     0050
_CountNext               bssBANK0     0046
_INTCONbits              (abs)        000B
_ISR                     text4        002A
_Ic74595_Write           text5        0EBA
_InitKeyPad              text3        06B7
_InitLedMatrix           text2        06EF
_InitUART                text1        06D8
_LenghString             bssBANK0     004A
_OPTION_REGbits          (abs)        0081
_OldString               bssBANK0     004F
_PIE1bits                (abs)        008C
_PIR1bits                (abs)        000C
_RC0                     (abs)        0038
_RC1                     (abs)        0039
_RC2                     (abs)        003A
_RC3                     (abs)        003B
_RCIF                    (abs)        0065
_RCREG                   (abs)        001A
_RCSTAbits               (abs)        0018
_RD0                     (abs)        0040
_RD1                     (abs)        0041
_RD2                     (abs)        0042
_RD3                     (abs)        0043
_RD4                     (abs)        0044
_SPBRG                   (abs)        0099
_SelFont                 bssBANK0     0051
_StringReceive           bssBANK1     00A0
_T1CONbits               (abs)        0010
_TMR0                    (abs)        0001
_TMR1                    (abs)        000E
_TRISB0                  (abs)        0430
_TRISB1                  (abs)        0431
_TRISB2                  (abs)        0432
_TRISB3                  (abs)        0433
_TRISB4                  (abs)        0434
_TRISB5                  (abs)        0435
_TRISB6                  (abs)        0436
_TRISB7                  (abs)        0437
_TRISBbits               (abs)        0086
_TRISC0                  (abs)        0438
_TRISC1                  (abs)        0439
_TRISC2                  (abs)        043A
_TRISC3                  (abs)        043B
_TRISC6                  (abs)        043E
_TRISC7                  (abs)        043F
_TRISD0                  (abs)        0440
_TRISD1                  (abs)        0441
_TRISD2                  (abs)        0442
_TRISD3                  (abs)        0443
_TRISD4                  (abs)        0444
_TXSTAbits               (abs)        0098
_TempFont                bssBANK0     0052
_VCFG1                   (abs)        04FD
__CFG_BOR4V$BOR40V       (abs)        0000
__CFG_BOREN$ON           (abs)        0000
__CFG_CP$OFF             (abs)        0000
__CFG_CPD$OFF            (abs)        0000
__CFG_FCMEN$OFF          (abs)        0000
__CFG_FOSC$HS            (abs)        0000
__CFG_IESO$OFF           (abs)        0000
__CFG_LVP$OFF            (abs)        0000
__CFG_MCLRE$ON           (abs)        0000
__CFG_PWRTE$OFF          (abs)        0000
__CFG_WDTE$OFF           (abs)        0000
__CFG_WRT$OFF            (abs)        0000
__Habs1                  abs1         0000
__Hbank0                 bank0        0000
__Hbank1                 bank1        0000
__Hbank2                 bank2        0000
__Hbank3                 bank3        0000
__HbssBANK0              bssBANK0     0000
__HbssBANK1              bssBANK1     0000
__Hcinit                 cinit        002A
__Hclrtext               clrtext      0000
__Hcode                  code         0000
__Hcommon                common       0000
__Hconfig                config       2009
__HcstackBANK0           cstackBANK0  0000
__HcstackBANK1           cstackBANK1  0000
__HcstackCOMMON          cstackCOMMON 0000
__HdataBANK0             dataBANK0    0000
__Heeprom_data           eeprom_data  0000
__Hend_init              end_init     0015
__Hfunctab               functab      0000
__HidataBANK0            idataBANK0   0000
__Hidloc                 idloc        0000
__Hinit                  init         0012
__Hintentry              intentry     0012
__Hmaintext              maintext     0000
__Hpa_nodes0             pa_nodes0    0000
__Hpowerup               powerup      0000
__Hram                   ram          0000
__Hreset_vec             reset_vec    0003
__Hsfr0                  sfr0         0000
__Hsfr1                  sfr1         0000
__Hsfr2                  sfr2         0000
__Hsfr3                  sfr3         0000
__Hspace_0               (abs)        2009
__Hspace_1               (abs)        00BE
__Hspace_2               (abs)        0000
__Hspace_3               (abs)        0000
__Hstack                 stack        0000
__Hstrings               strings      0000
__Hstringtext            stringtext   0000
__Htext                  text         0000
__Labs1                  abs1         0000
__Lbank0                 bank0        0000
__Lbank1                 bank1        0000
__Lbank2                 bank2        0000
__Lbank3                 bank3        0000
__LbssBANK0              bssBANK0     0000
__LbssBANK1              bssBANK1     0000
__Lcinit                 cinit        0015
__Lclrtext               clrtext      0000
__Lcode                  code         0000
__Lcommon                common       0000
__Lconfig                config       2007
__LcstackBANK0           cstackBANK0  0000
__LcstackBANK1           cstackBANK1  0000
__LcstackCOMMON          cstackCOMMON 0000
__LdataBANK0             dataBANK0    0000
__Leeprom_data           eeprom_data  0000
__Lend_init              end_init     0012
__Lfunctab               functab      0000
__LidataBANK0            idataBANK0   0000
__Lidloc                 idloc        0000
__Linit                  init         0012
__Lintentry              intentry     0004
__Lmaintext              maintext     0000
__Lpa_nodes0             pa_nodes0    0000
__Lpowerup               powerup      0000
__Lram                   ram          0000
__Lreset_vec             reset_vec    0000
__Lsfr0                  sfr0         0000
__Lsfr1                  sfr1         0000
__Lsfr2                  sfr2         0000
__Lsfr3                  sfr3         0000
__Lspace_0               (abs)        0000
__Lspace_1               (abs)        0000
__Lspace_2               (abs)        0000
__Lspace_3               (abs)        0000
__Lstack                 stack        0000
__Lstrings               strings      0000
__Lstringtext            stringtext   0000
__Ltext                  text         0000
__S0                     (abs)        2009
__S1                     (abs)        00BE
__S2                     (abs)        0000
__S3                     (abs)        0000
___aldiv                 text4        00DA
___aldiv@counter         cstackCOMMON 0078
___aldiv@dividend        cstackCOMMON 0074
___aldiv@divisor         cstackCOMMON 0070
___aldiv@quotient        cstackCOMMON 007A
___aldiv@sign            cstackCOMMON 0079
___almod                 text4        014F
___almod@counter         cstackCOMMON 0078
___almod@dividend        cstackCOMMON 0074
___almod@divisor         cstackCOMMON 0070
___almod@sign            cstackCOMMON 0079
___altoft                text4        01B8
___altoft@c              cstackCOMMON 0078
___altoft@exp            cstackCOMMON 007C
___altoft@sign           cstackCOMMON 007D
___ftmul                 text4        01E7
___ftmul@cntr            cstackBANK0  002D
___ftmul@exp             cstackBANK0  0029
___ftmul@f1              cstackBANK0  0020
___ftmul@f2              cstackBANK0  0023
___ftmul@f3_as_product   cstackBANK0  002A
___ftmul@sign            cstackBANK0  002E
___ftpack                text4        0254
___ftpack@arg            cstackCOMMON 0070
___ftpack@exp            cstackCOMMON 0073
___ftpack@sign           cstackCOMMON 0074
___fttol                 text4        0296
___fttol@exp1            cstackBANK0  003B
___fttol@f1              cstackBANK0  002F
___fttol@lval            cstackBANK0  0037
___fttol@sign1           cstackBANK0  0036
___int_sp                stack        0000
___latbits               (abs)        0002
___lbmod                 text5        0F14
___lbmod@counter         cstackCOMMON 0073
___lbmod@dividend        cstackCOMMON 0072
___lbmod@divisor         cstackCOMMON 0070
___lbmod@rem             cstackCOMMON 0074
___lwdiv                 text5        0F30
___lwdiv@counter         cstackCOMMON 007B
___lwdiv@dividend        cstackCOMMON 0077
___lwdiv@divisor         cstackCOMMON 0075
___lwdiv@quotient        cstackCOMMON 0079
___lwmod                 text5        0F5A
___lwmod@counter         cstackCOMMON 0074
___lwmod@dividend        cstackCOMMON 0072
___lwmod@divisor         cstackCOMMON 0070
___sp                    stack        0000
___wmul                  text5        0EFB
___wmul@multiplicand     cstackCOMMON 0077
___wmul@multiplier       cstackCOMMON 0075
___wmul@product          cstackCOMMON 0079
__end_ofPL10             text4        02FC
__end_ofPL12             text5        0FF3
__end_ofPL14             text4        0303
__end_ofPL16             text5        0FFA
__end_ofPL18             text5        1000
__end_ofPL2              text5        0FC1
__end_ofPL4              text5        0FD2
__end_ofPL6              text5        0FDE
__end_ofPL8              text5        0FE9
__end_of_ISR             text4        00DA
__end_of_Ic74595_Write   text5        0EFB
__end_of_InitKeyPad      text3        06D8
__end_of_InitLedMatrix   text2        06F5
__end_of_InitUART        text1        06E7
__end_of___aldiv         text4        014F
__end_of___almod         text4        01B8
__end_of___altoft        text4        01E7
__end_of___ftmul         text4        0254
__end_of___ftpack        text4        0296
__end_of___fttol         text4        02F1
__end_of___lbmod         text5        0F30
__end_of___lwdiv         text5        0F5A
__end_of___lwmod         text5        0F7E
__end_of___wmul          text5        0F14
__end_of__initialization cinit        0026
__end_of__stringtab      stringtext   0412
__end_of_display         text5        0EBA
__end_of_font            stringtext   0658
__end_of_main            maintext     06B7
__end_of_strcmp          text5        0F9C
__end_of_strlen          text5        0FAC
__initialization         cinit        0015
__pbssBANK0              bssBANK0     0042
__pbssBANK1              bssBANK1     00A0
__pcstackBANK0           cstackBANK0  0020
__pcstackBANK1           cstackBANK1  0000
__pcstackCOMMON          cstackCOMMON 0070
__pdataBANK0             dataBANK0    005A
__pidataBANK0            idataBANK0   0000
__pintentry              intentry     0004
__pmaintext              maintext     065B
__pstringtext            stringtext   0400
__ptext1                 text1        06D8
__ptext10                text5        0F30
__ptext11                text5        0F14
__ptext12                text5        0EBA
__ptext13                text4        0296
__ptext14                text4        01E7
__ptext15                text4        01B8
__ptext16                text4        0254
__ptext17                text4        014F
__ptext18                text4        00DA
__ptext2                 text2        06EF
__ptext3                 text3        06B7
__ptext4                 text4        002A
__ptext5                 text5        0DFA
__ptext6                 text5        0F9C
__ptext7                 text5        0F7E
__ptext8                 text5        0EFB
__ptext9                 text5        0F5A
__size_of_ISR            (abs)        0000
__size_of_Ic74595_Write  (abs)        0000
__size_of_InitKeyPad     (abs)        0000
__size_of_InitLedMatrix  (abs)        0000
__size_of_InitUART       (abs)        0000
__size_of___aldiv        (abs)        0000
__size_of___almod        (abs)        0000
__size_of___altoft       (abs)        0000
__size_of___ftmul        (abs)        0000
__size_of___ftpack       (abs)        0000
__size_of___fttol        (abs)        0000
__size_of___lbmod        (abs)        0000
__size_of___lwdiv        (abs)        0000
__size_of___lwmod        (abs)        0000
__size_of___wmul         (abs)        0000
__size_of_display        (abs)        0000
__size_of_main           (abs)        0000
__size_of_strcmp         (abs)        0000
__size_of_strlen         (abs)        0000
__stringbase             stringtext   0412
__stringtab              stringtext   0400
_adc_lm35                bssBANK0     0042
_count                   bssBANK0     0054
_cout                    bssBANK0     0048
_display                 text5        0DFA
_font                    stringtext   0412
_i                       bssBANK0     0053
_main                    maintext     065B
_mode                    dataBANK0    005A
_next                    bssBANK0     004C
_pos                     bssBANK0     004E
_strcmp                  text5        0F7E
_strlen                  text5        0F9C
btemp                    (abs)        007E
clear_ram0               clrtext      06E7
display@StringDisplay    cstackCOMMON 007C
end_of_initialization    cinit        0026
interrupt_function       intentry     0004
intlevel0                functab      0000
intlevel1                functab      0000
intlevel2                functab      0000
intlevel3                functab      0000
intlevel4                functab      0000
intlevel5                functab      0000
reset_vec                reset_vec    0000
saved_w                  (abs)        007E
stackhi                  (abs)        0000
stacklo                  (abs)        0000
start                    init         0012
start_initialization     cinit        0015
strcmp@r                 cstackCOMMON 0074
strcmp@s1                cstackCOMMON 0075
strcmp@s2                cstackCOMMON 0070
strlen@cp                cstackCOMMON 0074
strlen@s                 cstackCOMMON 0073
wtemp0                   (abs)        007E


FUNCTION INFORMATION:

 *************** function _main *****************
 Defined at:
		line 133 in file "main.c"
 Parameters:    Size  Location     Type
		None
 Auto vars:     Size  Location     Type
		None
 Return value:  Size  Location     Type
                  1    wreg      void 
 Registers used:
		wreg, status,2, status,0, pclath, cstack
 Tracked objects:
		On entry : 
		On exit  : 
		Unchanged: 
 Data sizes:     COMMON   BANK0   BANK1   BANK3   BANK2
      Params:         0       0       0       0       0
      Locals:         0       0       0       0       0
      Temps:          0       0       0       0       0
      Totals:         0       0       0       0       0
Total ram usage:        0 bytes
 Hardware stack levels required when called:    4
 This function calls:
		_InitKeyPad
		_InitLedMatrix
		_InitUART
 This function is called by:
		Startup code after reset
 This function uses a non-reentrant model


 *************** function _InitUART *****************
 Defined at:
		line 10 in file "esp8266.c"
 Parameters:    Size  Location     Type
		None
 Auto vars:     Size  Location     Type
		None
 Return value:  Size  Location     Type
                  1    wreg      void 
 Registers used:
		wreg
 Tracked objects:
		On entry : 
		On exit  : 
		Unchanged: 
 Data sizes:     COMMON   BANK0   BANK1   BANK3   BANK2
      Params:         0       0       0       0       0
      Locals:         0       0       0       0       0
      Temps:          0       0       0       0       0
      Totals:         0       0       0       0       0
Total ram usage:        0 bytes
 Hardware stack levels used:    1
 Hardware stack levels required when called:    3
 This function calls:
		Nothing
 This function is called by:
		_main
 This function uses a non-reentrant model


 *************** function _InitLedMatrix *****************
 Defined at:
		line 262 in file "LedMatrix.c"
 Parameters:    Size  Location     Type
		None
 Auto vars:     Size  Location     Type
		None
 Return value:  Size  Location     Type
                  1    wreg      void 
 Registers used:
		None
 Tracked objects:
		On entry : 
		On exit  : 
		Unchanged: 
 Data sizes:     COMMON   BANK0   BANK1   BANK3   BANK2
      Params:         0       0       0       0       0
      Locals:         0       0       0       0       0
      Temps:          0       0       0       0       0
      Totals:         0       0       0       0       0
Total ram usage:        0 bytes
 Hardware stack levels used:    1
 Hardware stack levels required when called:    3
 This function calls:
		Nothing
 This function is called by:
		_main
 This function uses a non-reentrant model


 *************** function _InitKeyPad *****************
 Defined at:
		line 18 in file "KeyPad.c"
 Parameters:    Size  Location     Type
		None
 Auto vars:     Size  Location     Type
		None
 Return value:  Size  Location     Type
                  1    wreg      void 
 Registers used:
		None
 Tracked objects:
		On entry : 
		On exit  : 
		Unchanged: 
 Data sizes:     COMMON   BANK0   BANK1   BANK3   BANK2
      Params:         0       0       0       0       0
      Locals:         0       0       0       0       0
      Temps:          0       0       0       0       0
      Totals:         0       0       0       0       0
Total ram usage:        0 bytes
 Hardware stack levels used:    1
 Hardware stack levels required when called:    3
 This function calls:
		Nothing
 This function is called by:
		_main
 This function uses a non-reentrant model


 *************** function _ISR *****************
 Defined at:
		line 287 in file "main.c"
 Parameters:    Size  Location     Type
		None
 Auto vars:     Size  Location     Type
		None
 Return value:  Size  Location     Type
                  1    wreg      void 
 Registers used:
		wreg, fsr0l, fsr0h, status,2, status,0, btemp+1, pclath, cstack
 Tracked objects:
		On entry : 
		On exit  : 
		Unchanged: 
 Data sizes:     COMMON   BANK0   BANK1   BANK3   BANK2
      Params:         0       0       0       0       0
      Locals:         0       0       0       0       0
      Temps:          0       6       0       0       0
      Totals:         0       6       0       0       0
Total ram usage:        6 bytes
 Hardware stack levels used:    1
 Hardware stack levels required when called:    2
 This function calls:
		___aldiv
		___almod
		___altoft
		___ftmul
		___fttol
		_display
 This function is called by:
		Interrupt level 1
 This function uses a non-reentrant model


 *************** function _display *****************
 Defined at:
		line 386 in file "LedMatrix.c"
 Parameters:    Size  Location     Type
  StringDispla    1    wreg     PTR unsigned char 
		 -> Adc_lm35String(5), 
 Auto vars:     Size  Location     Type
  StringDispla    1   12[COMMON] PTR unsigned char 
		 -> Adc_lm35String(5), 
 Return value:  Size  Location     Type
                  1    wreg      void 
 Registers used:
		wreg, fsr0l, fsr0h, status,2, status,0, btemp+1, pclath, cstack
 Tracked objects:
		On entry : 
		On exit  : 
		Unchanged: 
 Data sizes:     COMMON   BANK0   BANK1   BANK3   BANK2
      Params:         0       0       0       0       0
      Locals:         1       0       0       0       0
      Temps:          0       6       0       0       0
      Totals:         1       6       0       0       0
Total ram usage:        7 bytes
 Hardware stack levels used:    1
 Hardware stack levels required when called:    1
 This function calls:
		_Ic74595_Write
		___lbmod
		___lwdiv
		___lwmod
		___wmul
		_strcmp
		_strlen
 This function is called by:
		_ISR
 This function uses a non-reentrant model


 *************** function _strlen *****************
 Defined at:
		line 4 in file "C:\Program Files (x86)\Microchip\xc8\v1.41\sources\common\strlen.c"
 Parameters:    Size  Location     Type
  s               1    wreg     PTR const unsigned char 
		 -> Adc_lm35String(5), 
 Auto vars:     Size  Location     Type
  s               1    3[COMMON] PTR const unsigned char 
		 -> Adc_lm35String(5), 
  cp              1    4[COMMON] PTR const unsigned char 
		 -> Adc_lm35String(5), 
 Return value:  Size  Location     Type
                  2    0[COMMON] unsigned int 
 Registers used:
		wreg, fsr0l, fsr0h, status,2, status,0
 Tracked objects:
		On entry : 
		On exit  : 
		Unchanged: 
 Data sizes:     COMMON   BANK0   BANK1   BANK3   BANK2
      Params:         3       0       0       0       0
      Locals:         2       0       0       0       0
      Temps:          0       0       0       0       0
      Totals:         5       0       0       0       0
Total ram usage:        5 bytes
 Hardware stack levels used:    1
 This function calls:
		Nothing
 This function is called by:
		_display
 This function uses a non-reentrant model


 *************** function _strcmp *****************
 Defined at:
		line 33 in file "C:\Program Files (x86)\Microchip\xc8\v1.41\sources\common\strcmp.c"
 Parameters:    Size  Location     Type
  s1              1    wreg     PTR const unsigned char 
		 -> NULL(0), Adc_lm35String(5), 
  s2              1    0[COMMON] PTR const unsigned char 
		 -> Adc_lm35String(5), 
 Auto vars:     Size  Location     Type
  s1              1    5[COMMON] PTR const unsigned char 
		 -> NULL(0), Adc_lm35String(5), 
  r               1    4[COMMON] char 
 Return value:  Size  Location     Type
                  2    0[COMMON] int 
 Registers used:
		wreg, fsr0l, fsr0h, status,2, status,0
 Tracked objects:
		On entry : 
		On exit  : 
		Unchanged: 
 Data sizes:     COMMON   BANK0   BANK1   BANK3   BANK2
      Params:         2       0       0       0       0
      Locals:         2       0       0       0       0
      Temps:          2       0       0       0       0
      Totals:         6       0       0       0       0
Total ram usage:        6 bytes
 Hardware stack levels used:    1
 This function calls:
		Nothing
 This function is called by:
		_display
 This function uses a non-reentrant model


 *************** function ___wmul *****************
 Defined at:
		line 15 in file "C:\Program Files (x86)\Microchip\xc8\v1.41\sources\common\Umul16.c"
 Parameters:    Size  Location     Type
  multiplier      2    5[COMMON] unsigned int 
  multiplicand    2    7[COMMON] unsigned int 
 Auto vars:     Size  Location     Type
  product         2    9[COMMON] unsigned int 
 Return value:  Size  Location     Type
                  2    5[COMMON] unsigned int 
 Registers used:
		wreg, status,2, status,0
 Tracked objects:
		On entry : 
		On exit  : 
		Unchanged: 
 Data sizes:     COMMON   BANK0   BANK1   BANK3   BANK2
      Params:         4       0       0       0       0
      Locals:         2       0       0       0       0
      Temps:          0       0       0       0       0
      Totals:         6       0       0       0       0
Total ram usage:        6 bytes
 Hardware stack levels used:    1
 This function calls:
		Nothing
 This function is called by:
		_display
 This function uses a non-reentrant model


 *************** function ___lwmod *****************
 Defined at:
		line 6 in file "C:\Program Files (x86)\Microchip\xc8\v1.41\sources\common\lwmod.c"
 Parameters:    Size  Location     Type
  divisor         2    0[COMMON] unsigned int 
  dividend        2    2[COMMON] unsigned int 
 Auto vars:     Size  Location     Type
  counter         1    4[COMMON] unsigned char 
 Return value:  Size  Location     Type
                  2    0[COMMON] unsigned int 
 Registers used:
		wreg, status,2, status,0
 Tracked objects:
		On entry : 
		On exit  : 
		Unchanged: 
 Data sizes:     COMMON   BANK0   BANK1   BANK3   BANK2
      Params:         4       0       0       0       0
      Locals:         1       0       0       0       0
      Temps:          0       0       0       0       0
      Totals:         5       0       0       0       0
Total ram usage:        5 bytes
 Hardware stack levels used:    1
 This function calls:
		Nothing
 This function is called by:
		_display
 This function uses a non-reentrant model


 *************** function ___lwdiv *****************
 Defined at:
		line 6 in file "C:\Program Files (x86)\Microchip\xc8\v1.41\sources\common\lwdiv.c"
 Parameters:    Size  Location     Type
  divisor         2    5[COMMON] unsigned int 
  dividend        2    7[COMMON] unsigned int 
 Auto vars:     Size  Location     Type
  quotient        2    9[COMMON] unsigned int 
  counter         1   11[COMMON] unsigned char 
 Return value:  Size  Location     Type
                  2    5[COMMON] unsigned int 
 Registers used:
		wreg, status,2, status,0
 Tracked objects:
		On entry : 
		On exit  : 
		Unchanged: 
 Data sizes:     COMMON   BANK0   BANK1   BANK3   BANK2
      Params:         4       0       0       0       0
      Locals:         3       0       0       0       0
      Temps:          0       0       0       0       0
      Totals:         7       0       0       0       0
Total ram usage:        7 bytes
 Hardware stack levels used:    1
 This function calls:
		Nothing
 This function is called by:
		_display
 This function uses a non-reentrant model


 *************** function ___lbmod *****************
 Defined at:
		line 4 in file "C:\Program Files (x86)\Microchip\xc8\v1.41\sources\common\lbmod.c"
 Parameters:    Size  Location     Type
  dividend        1    wreg     unsigned char 
  divisor         1    0[COMMON] unsigned char 
 Auto vars:     Size  Location     Type
  dividend        1    2[COMMON] unsigned char 
  rem             1    4[COMMON] unsigned char 
  counter         1    3[COMMON] unsigned char 
 Return value:  Size  Location     Type
                  1    wreg      unsigned char 
 Registers used:
		wreg, status,2, status,0
 Tracked objects:
		On entry : 
		On exit  : 
		Unchanged: 
 Data sizes:     COMMON   BANK0   BANK1   BANK3   BANK2
      Params:         1       0       0       0       0
      Locals:         3       0       0       0       0
      Temps:          1       0       0       0       0
      Totals:         5       0       0       0       0
Total ram usage:        5 bytes
 Hardware stack levels used:    1
 This function calls:
		Nothing
 This function is called by:
		_display
 This function uses a non-reentrant model


 *************** function _Ic74595_Write *****************
 Defined at:
		line 355 in file "LedMatrix.c"
 Parameters:    Size  Location     Type
  data            1    wreg     unsigned char 
  ic              1    0[COMMON] unsigned char 
  bits            1    1[COMMON] unsigned char 
 Auto vars:     Size  Location     Type
  data            1    4[COMMON] unsigned char 
 Return value:  Size  Location     Type
                  1    wreg      void 
 Registers used:
		wreg, status,2, status,0
 Tracked objects:
		On entry : 
		On exit  : 
		Unchanged: 
 Data sizes:     COMMON   BANK0   BANK1   BANK3   BANK2
      Params:         2       0       0       0       0
      Locals:         1       0       0       0       0
      Temps:          2       0       0       0       0
      Totals:         5       0       0       0       0
Total ram usage:        5 bytes
 Hardware stack levels used:    1
 This function calls:
		Nothing
 This function is called by:
		_display
 This function uses a non-reentrant model


 *************** function ___fttol *****************
 Defined at:
		line 44 in file "C:\Program Files (x86)\Microchip\xc8\v1.41\sources\common\fttol.c"
 Parameters:    Size  Location     Type
  f1              3   15[BANK0 ] float 
 Auto vars:     Size  Location     Type
  lval            4   23[BANK0 ] unsigned long 
  exp1            1   27[BANK0 ] unsigned char 
  sign1           1   22[BANK0 ] unsigned char 
 Return value:  Size  Location     Type
                  4   15[BANK0 ] long 
 Registers used:
		wreg, status,2, status,0
 Tracked objects:
		On entry : 
		On exit  : 
		Unchanged: 
 Data sizes:     COMMON   BANK0   BANK1   BANK3   BANK2
      Params:         0       4       0       0       0
      Locals:         0       6       0       0       0
      Temps:          0       3       0       0       0
      Totals:         0      13       0       0       0
Total ram usage:       13 bytes
 Hardware stack levels used:    1
 This function calls:
		Nothing
 This function is called by:
		_ISR
 This function uses a non-reentrant model


 *************** function ___ftmul *****************
 Defined at:
		line 62 in file "C:\Program Files (x86)\Microchip\xc8\v1.41\sources\common\ftmul.c"
 Parameters:    Size  Location     Type
  f1              3    0[BANK0 ] float 
  f2              3    3[BANK0 ] float 
 Auto vars:     Size  Location     Type
  f3_as_produc    3   10[BANK0 ] unsigned um
  sign            1   14[BANK0 ] unsigned char 
  cntr            1   13[BANK0 ] unsigned char 
  exp             1    9[BANK0 ] unsigned char 
 Return value:  Size  Location     Type
                  3    0[BANK0 ] float 
 Registers used:
		wreg, status,2, status,0, pclath, cstack
 Tracked objects:
		On entry : 
		On exit  : 
		Unchanged: 
 Data sizes:     COMMON   BANK0   BANK1   BANK3   BANK2
      Params:         0       6       0       0       0
      Locals:         0       6       0       0       0
      Temps:          0       3       0       0       0
      Totals:         0      15       0       0       0
Total ram usage:       15 bytes
 Hardware stack levels used:    1
 Hardware stack levels required when called:    1
 This function calls:
		___ftpack
 This function is called by:
		_ISR
 This function uses a non-reentrant model


 *************** function ___altoft *****************
 Defined at:
		line 42 in file "C:\Program Files (x86)\Microchip\xc8\v1.41\sources\common\altoft.c"
 Parameters:    Size  Location     Type
  c               4    8[COMMON] long 
 Auto vars:     Size  Location     Type
  sign            1   13[COMMON] unsigned char 
  exp             1   12[COMMON] unsigned char 
 Return value:  Size  Location     Type
                  3    8[COMMON] float 
 Registers used:
		wreg, status,2, status,0, pclath, cstack
 Tracked objects:
		On entry : 
		On exit  : 
		Unchanged: 
 Data sizes:     COMMON   BANK0   BANK1   BANK3   BANK2
      Params:         4       0       0       0       0
      Locals:         2       0       0       0       0
      Temps:          0       0       0       0       0
      Totals:         6       0       0       0       0
Total ram usage:        6 bytes
 Hardware stack levels used:    1
 Hardware stack levels required when called:    1
 This function calls:
		___ftpack
 This function is called by:
		_ISR
 This function uses a non-reentrant model


 *************** function ___ftpack *****************
 Defined at:
		line 62 in file "C:\Program Files (x86)\Microchip\xc8\v1.41\sources\common\float.c"
 Parameters:    Size  Location     Type
  arg             3    0[COMMON] unsigned um
  exp             1    3[COMMON] unsigned char 
  sign            1    4[COMMON] unsigned char 
 Auto vars:     Size  Location     Type
		None
 Return value:  Size  Location     Type
                  3    0[COMMON] float 
 Registers used:
		wreg, status,2, status,0
 Tracked objects:
		On entry : 
		On exit  : 
		Unchanged: 
 Data sizes:     COMMON   BANK0   BANK1   BANK3   BANK2
      Params:         5       0       0       0       0
      Locals:         0       0       0       0       0
      Temps:          3       0       0       0       0
      Totals:         8       0       0       0       0
Total ram usage:        8 bytes
 Hardware stack levels used:    1
 This function calls:
		Nothing
 This function is called by:
		___altoft
		___ftmul
 This function uses a non-reentrant model


 *************** function ___almod *****************
 Defined at:
		line 5 in file "C:\Program Files (x86)\Microchip\xc8\v1.41\sources\common\almod.c"
 Parameters:    Size  Location     Type
  divisor         4    0[COMMON] long 
  dividend        4    4[COMMON] long 
 Auto vars:     Size  Location     Type
  sign            1    9[COMMON] unsigned char 
  counter         1    8[COMMON] unsigned char 
 Return value:  Size  Location     Type
                  4    0[COMMON] long 
 Registers used:
		wreg, status,2, status,0
 Tracked objects:
		On entry : 
		On exit  : 
		Unchanged: 
 Data sizes:     COMMON   BANK0   BANK1   BANK3   BANK2
      Params:         8       0       0       0       0
      Locals:         2       0       0       0       0
      Temps:          0       0       0       0       0
      Totals:        10       0       0       0       0
Total ram usage:       10 bytes
 Hardware stack levels used:    1
 This function calls:
		Nothing
 This function is called by:
		_ISR
 This function uses a non-reentrant model


 *************** function ___aldiv *****************
 Defined at:
		line 6 in file "C:\Program Files (x86)\Microchip\xc8\v1.41\sources\common\aldiv.c"
 Parameters:    Size  Location     Type
  divisor         4    0[COMMON] long 
  dividend        4    4[COMMON] long 
 Auto vars:     Size  Location     Type
  quotient        4   10[COMMON] long 
  sign            1    9[COMMON] unsigned char 
  counter         1    8[COMMON] unsigned char 
 Return value:  Size  Location     Type
                  4    0[COMMON] long 
 Registers used:
		wreg, status,2, status,0
 Tracked objects:
		On entry : 
		On exit  : 
		Unchanged: 
 Data sizes:     COMMON   BANK0   BANK1   BANK3   BANK2
      Params:         8       0       0       0       0
      Locals:         6       0       0       0       0
      Temps:          0       0       0       0       0
      Totals:        14       0       0       0       0
Total ram usage:       14 bytes
 Hardware stack levels used:    1
 This function calls:
		Nothing
 This function is called by:
		_ISR
 This function uses a non-reentrant model



MODULE INFORMATION

Module		Function		Class		Link	Load	Size
C:\Program Files (x86)\Microchip\xc8\v1.41\sources\common\lwdiv.c
		___lwdiv       		CODE           	0F30	0000	43

C:\Program Files (x86)\Microchip\xc8\v1.41\sources\common\lwdiv.c estimated size: 43

C:\Program Files (x86)\Microchip\xc8\v1.41\sources\common\lbmod.c
		___lbmod       		CODE           	0F14	0000	29

C:\Program Files (x86)\Microchip\xc8\v1.41\sources\common\lbmod.c estimated size: 29

C:\Program Files (x86)\Microchip\xc8\v1.41\sources\common\aldiv.c
		___aldiv       		CODE           	00DA	0000	118

C:\Program Files (x86)\Microchip\xc8\v1.41\sources\common\aldiv.c estimated size: 118

C:\Program Files (x86)\Microchip\xc8\v1.41\sources\common\fttol.c
		___fttol       		CODE           	0296	0000	92

C:\Program Files (x86)\Microchip\xc8\v1.41\sources\common\fttol.c estimated size: 92

C:\Program Files (x86)\Microchip\xc8\v1.41\sources\common\Umul16.c
		___wmul        		CODE           	0EFB	0000	26

C:\Program Files (x86)\Microchip\xc8\v1.41\sources\common\Umul16.c estimated size: 26

esp8266.c
		_InitUART      		CODE           	06D8	0000	16

esp8266.c estimated size: 16

KeyPad.c
		_InitKeyPad    		CODE           	06B7	0000	34

KeyPad.c estimated size: 34

LedMatrix.c
		_Ic74595_Write 		CODE           	0EBA	0000	66
		_display       		CODE           	0DFA	0000	193
		_InitLedMatrix 		CODE           	06EF	0000	7

LedMatrix.c estimated size: 266

C:\Program Files (x86)\Microchip\xc8\v1.41\sources\common\float.c
		___ftpack      		CODE           	0254	0000	67

C:\Program Files (x86)\Microchip\xc8\v1.41\sources\common\float.c estimated size: 67

shared
		PL12           		CODE           	0FE9	0000	11
		PL8            		CODE           	0FDE	0000	12
		PL14           		CODE           	02FC	0000	8
		__stringtab    		STRCODE        	0400	0000	19
		PL16           		CODE           	0FF3	0000	8
		_font          		STRCODE        	0412	0000	583
		PL18           		CODE           	0FFA	0000	7
		__initialization		CODE           	0015	0000	18
		PL2            		CODE           	0FAC	0000	22
		PL10           		CODE           	02F1	0000	12
		PL4            		CODE           	0FC1	0000	18
		PL6            		CODE           	0FD2	0000	13

shared estimated size: 731

C:\Program Files (x86)\Microchip\xc8\v1.41\sources\common\lwmod.c
		___lwmod       		CODE           	0F5A	0000	37

C:\Program Files (x86)\Microchip\xc8\v1.41\sources\common\lwmod.c estimated size: 37

C:\Program Files (x86)\Microchip\xc8\v1.41\sources\common\strlen.c
		_strlen        		CODE           	0F9C	0000	17

C:\Program Files (x86)\Microchip\xc8\v1.41\sources\common\strlen.c estimated size: 17

C:\Program Files (x86)\Microchip\xc8\v1.41\sources\common\strcmp.c
		_strcmp        		CODE           	0F7E	0000	31

C:\Program Files (x86)\Microchip\xc8\v1.41\sources\common\strcmp.c estimated size: 31

C:\Program Files (x86)\Microchip\xc8\v1.41\sources\common\altoft.c
		___altoft      		CODE           	01B8	0000	48

C:\Program Files (x86)\Microchip\xc8\v1.41\sources\common\altoft.c estimated size: 48

C:\Program Files (x86)\Microchip\xc8\v1.41\sources\common\almod.c
		___almod       		CODE           	014F	0000	106

C:\Program Files (x86)\Microchip\xc8\v1.41\sources\common\almod.c estimated size: 106

C:\Program Files (x86)\Microchip\xc8\v1.41\sources\common\ftmul.c
		___ftmul       		CODE           	01E7	0000	110

C:\Program Files (x86)\Microchip\xc8\v1.41\sources\common\ftmul.c estimated size: 110

main.c
		_ISR           		CODE           	002A	0000	177
		_main          		CODE           	065B	0000	93

main.c estimated size: 270

